; Function Attrs: inlinehint mustprogress nounwind willreturn uwtable
define internal fastcc void @Vec_IntPush(ptr noundef captures(none) %0, i32 noundef %1) unnamed_addr #7 {
  %3 = getelementptr inbounds nuw i8, ptr %0, i64 4
  %4 = load i32, ptr %3, align 4, !tbaa !29
  %5 = load i32, ptr %0, align 8, !tbaa !55
  %6 = icmp eq i32 %4, %5
  br i1 %6, label %7, label %.Vec_IntGrow.exit10_crit_edge

.Vec_IntGrow.exit10_crit_edge:                    ; preds = %2
  %.phi.trans.insert = getelementptr inbounds nuw i8, ptr %0, i64 8
  %.pre = load ptr, ptr %.phi.trans.insert, align 8, !tbaa !32
  br label %Vec_IntGrow.exit10

7:                                                ; preds = %2
  %8 = icmp slt i32 %4, 16
  br i1 %8, label %9, label %17

9:                                                ; preds = %7
  %10 = getelementptr inbounds nuw i8, ptr %0, i64 8
  %11 = load ptr, ptr %10, align 8, !tbaa !32
  %.not9.i = icmp eq ptr %11, null
  br i1 %.not9.i, label %14, label %12

12:                                               ; preds = %9
  %13 = tail call dereferenceable_or_null(64) ptr @realloc(ptr noundef nonnull %11, i64 noundef 64) #23
  br label %Vec_IntGrow.exit

14:                                               ; preds = %9
  %15 = tail call noalias dereferenceable_or_null(64) ptr @malloc(i64 noundef 64) #22
  br label %Vec_IntGrow.exit

Vec_IntGrow.exit:                                 ; preds = %12, %14
  %16 = phi ptr [ %13, %12 ], [ %15, %14 ]
  store ptr %16, ptr %10, align 8, !tbaa !32
  store i32 16, ptr %0, align 8, !tbaa !55
  br label %Vec_IntGrow.exit10

17:                                               ; preds = %7
  %18 = shl nuw nsw i32 %4, 1
  %19 = getelementptr inbounds nuw i8, ptr %0, i64 8
  %20 = load ptr, ptr %19, align 8, !tbaa !32
  %.not9.i9 = icmp eq ptr %20, null
  %21 = zext nneg i32 %18 to i64
  %22 = shl nuw nsw i64 %21, 2
  br i1 %.not9.i9, label %25, label %23

23:                                               ; preds = %17
  %24 = tail call ptr @realloc(ptr noundef nonnull %20, i64 noundef %22) #23
  br label %27

25:                                               ; preds = %17
  %26 = tail call noalias ptr @malloc(i64 noundef %22) #22
  br label %27

27:                                               ; preds = %25, %23
  %28 = phi ptr [ %24, %23 ], [ %26, %25 ]
  store ptr %28, ptr %19, align 8, !tbaa !32
  store i32 %18, ptr %0, align 8, !tbaa !55
  br label %Vec_IntGrow.exit10

Vec_IntGrow.exit10:                               ; preds = %.Vec_IntGrow.exit10_crit_edge, %27, %Vec_IntGrow.exit
  %29 = phi ptr [ %.pre, %.Vec_IntGrow.exit10_crit_edge ], [ %28, %27 ], [ %16, %Vec_IntGrow.exit ]
  %30 = load i32, ptr %3, align 4, !tbaa !29
  %31 = add nsw i32 %30, 1
  store i32 %31, ptr %3, align 4, !tbaa !29
  %32 = sext i32 %30 to i64
  %33 = getelementptr inbounds i32, ptr %29, i64 %32
  store i32 %1, ptr %33, align 4, !tbaa !33
  ret void
}